target datalayout = "e-m:e-p270:32:32-p271:32:32-p272:64:64-i64:64-i128:128-f80:128-n8:16:32:64-S128"
target triple = "x86_64-pc-linux-gnu"

%class.rational = type { %class.mpq }
%class.mpq = type { %class.mpz, %class.mpz }
%class.mpz = type { i32, i8, ptr }
%class.bv_util = type { %class.bv_recognizers, ptr, ptr }
%class.bv_recognizers = type { i32 }
%class.svector.20 = type { %class.vector.21 }
%class.vector.21 = type { ptr }
%class.ref_vector.53 = type { %class.ref_vector_core.54 }
%class.ref_vector_core.54 = type { %class.ref_manager_wrapper.55, %class.ptr_vector.56 }
%class.ref_manager_wrapper.55 = type { ptr }
%class.ptr_vector.56 = type { %class.vector.57 }
%class.vector.57 = type { ptr }
%class.expr_offset = type <{ ptr, i32, [4 x i8] }>
%"struct.std::pair" = type { i32, i32 }
%class.substitution = type <{ ptr, %class.var_offset_map, %class.svector.62, %class.ref_vector.53, %class.svector.20, %class.svector.64, %class.expr_offset_map, %class.ref_vector.53, %class.expr_offset_map.67, i32, [4 x i8] }>
%class.var_offset_map = type <{ %class.svector.60, i32, i32, i32, [4 x i8] }>
%class.svector.60 = type { %class.vector.61 }
%class.vector.61 = type { ptr }
%class.svector.62 = type { %class.vector.63 }
%class.vector.63 = type { ptr }
%class.svector.64 = type { %class.vector.65 }
%class.vector.65 = type { ptr }
%class.expr_offset_map = type <{ %class.vector.66, i32, [4 x i8] }>
%class.vector.66 = type { ptr }
%class.expr_offset_map.67 = type <{ %class.vector.68, i32, [4 x i8] }>
%class.vector.68 = type { ptr }
%"struct.var_offset_map<expr_offset>::data" = type { %class.expr_offset, i32, [4 x i8] }

@.str.13 = private unnamed_addr constant [119 x i8] c"generated/home/dtcxzyw/WorkSpace/Projects/compilers/llvm-opt-benchmark/bench/z3/z3/src/ast/substitution/substitution.h\00", align 1
@.str.14 = private unnamed_addr constant [58 x i8] c"Failed to verify: m_subst.find(var.first, var.second, r)\0A\00", align 1

; Function Attrs: mustprogress nounwind uwtable
define linkonce_odr hidden noundef nonnull align 8 dereferenceable(20) ptr @_ZNK6vectorIN14var_offset_mapI11expr_offsetE4dataELb0EjEixEj(ptr noundef nonnull align 8 dereferenceable(8) %0, i32 noundef %1) #5 comdat align 2 {
  %3 = alloca ptr, align 8
  %4 = alloca i32, align 4
  store ptr %0, ptr %3, align 8, !tbaa !449
  store i32 %1, ptr %4, align 4, !tbaa !128
  %5 = load ptr, ptr %3, align 8
  %6 = getelementptr inbounds nuw %class.vector.61, ptr %5, i32 0, i32 0
  %7 = load ptr, ptr %6, align 8, !tbaa !451
  %8 = load i32, ptr %4, align 4, !tbaa !128
  %9 = zext i32 %8 to i64
  %10 = getelementptr inbounds nuw %"struct.var_offset_map<expr_offset>::data", ptr %7, i64 %9
  ret ptr %10
}

; Function Attrs: mustprogress nounwind uwtable
define linkonce_odr hidden void @_ZN3mpzC2Ei(ptr noundef nonnull align 8 dereferenceable(16) %0, i32 noundef %1) unnamed_addr #5 comdat align 2 {
  %3 = alloca ptr, align 8
  %4 = alloca i32, align 4
  store ptr %0, ptr %3, align 8, !tbaa !456
  store i32 %1, ptr %4, align 4, !tbaa !128
  %5 = load ptr, ptr %3, align 8
  %6 = getelementptr inbounds nuw %class.mpz, ptr %5, i32 0, i32 0
  %7 = load i32, ptr %4, align 4, !tbaa !128
  store i32 %7, ptr %6, align 8, !tbaa !458
  %8 = getelementptr inbounds nuw %class.mpz, ptr %5, i32 0, i32 1
  %9 = load i8, ptr %8, align 4
  %10 = and i8 %9, -2
  %11 = or i8 %10, 0
  store i8 %11, ptr %8, align 4
  %12 = getelementptr inbounds nuw %class.mpz, ptr %5, i32 0, i32 1
  %13 = load i8, ptr %12, align 4
  %14 = and i8 %13, -3
  %15 = or i8 %14, 0
  store i8 %15, ptr %12, align 4
  %16 = getelementptr inbounds nuw %class.mpz, ptr %5, i32 0, i32 2
  store ptr null, ptr %16, align 8, !tbaa !461
  ret void
}

; Function Attrs: mustprogress nounwind uwtable
define linkonce_odr hidden void @_ZN3mpzC2Ev(ptr noundef nonnull align 8 dereferenceable(16) %0) unnamed_addr #5 comdat align 2 {
  %2 = alloca ptr, align 8
  store ptr %0, ptr %2, align 8, !tbaa !456
  %3 = load ptr, ptr %2, align 8
  %4 = getelementptr inbounds nuw %class.mpz, ptr %3, i32 0, i32 0
  store i32 0, ptr %4, align 8, !tbaa !458
  %5 = getelementptr inbounds nuw %class.mpz, ptr %3, i32 0, i32 1
  %6 = load i8, ptr %5, align 4
  %7 = and i8 %6, -2
  %8 = or i8 %7, 0
  store i8 %8, ptr %5, align 4
  %9 = getelementptr inbounds nuw %class.mpz, ptr %3, i32 0, i32 1
  %10 = load i8, ptr %9, align 4
  %11 = and i8 %10, -3
  %12 = or i8 %11, 0
  store i8 %12, ptr %9, align 4
  %13 = getelementptr inbounds nuw %class.mpz, ptr %3, i32 0, i32 2
  store ptr null, ptr %13, align 8, !tbaa !461
  ret void
}

; Function Attrs: mustprogress uwtable
define linkonce_odr hidden noundef zeroext i1 @_ZNK14var_offset_mapI11expr_offsetE4findEjjRS0_(ptr noundef nonnull align 8 dereferenceable(20) %0, i32 noundef %1, i32 noundef %2, ptr noundef nonnull align 8 dereferenceable(12) %3) #4 comdat align 2 {
  %5 = alloca i1, align 1
  %6 = alloca ptr, align 8
  %7 = alloca i32, align 4
  %8 = alloca i32, align 4
  %9 = alloca ptr, align 8
  %10 = alloca i32, align 4
  %11 = alloca ptr, align 8
  %12 = alloca i32, align 4
  store ptr %0, ptr %6, align 8, !tbaa !437
  store i32 %1, ptr %7, align 4, !tbaa !128
  store i32 %2, ptr %8, align 4, !tbaa !128
  store ptr %3, ptr %9, align 8, !tbaa !216
  %13 = load ptr, ptr %6, align 8
  call void @llvm.lifetime.start.p0(i64 4, ptr %10) #3
  %14 = load i32, ptr %7, align 4, !tbaa !128
  %15 = load i32, ptr %8, align 4, !tbaa !128
  %16 = getelementptr inbounds nuw %class.var_offset_map, ptr %13, i32 0, i32 2
  %17 = load i32, ptr %16, align 4, !tbaa !439
  %18 = mul i32 %15, %17
  %19 = add i32 %14, %18
  store i32 %19, ptr %10, align 4, !tbaa !128
  call void @llvm.lifetime.start.p0(i64 8, ptr %11) #3
  %20 = getelementptr inbounds nuw %class.var_offset_map, ptr %13, i32 0, i32 0
  %21 = load i32, ptr %10, align 4, !tbaa !128
  %22 = call noundef nonnull align 8 dereferenceable(20) ptr @_ZNK6vectorIN14var_offset_mapI11expr_offsetE4dataELb0EjEixEj(ptr noundef nonnull align 8 dereferenceable(8) %20, i32 noundef %21)
  store ptr %22, ptr %11, align 8, !tbaa !444
  %23 = load ptr, ptr %11, align 8, !tbaa !444
  %24 = getelementptr inbounds nuw %"struct.var_offset_map<expr_offset>::data", ptr %23, i32 0, i32 1
  %25 = load i32, ptr %24, align 8, !tbaa !445
  %26 = getelementptr inbounds nuw %class.var_offset_map, ptr %13, i32 0, i32 3
  %27 = load i32, ptr %26, align 8, !tbaa !447
  %28 = icmp eq i32 %25, %27
  br i1 %28, label %29, label %33

29:                                               ; preds = %4
  %30 = load ptr, ptr %11, align 8, !tbaa !444
  %31 = getelementptr inbounds nuw %"struct.var_offset_map<expr_offset>::data", ptr %30, i32 0, i32 0
  %32 = load ptr, ptr %9, align 8, !tbaa !216
  call void @llvm.memcpy.p0.p0.i64(ptr align 8 %32, ptr align 8 %31, i64 12, i1 false), !tbaa.struct !448
  store i1 true, ptr %5, align 1
  store i32 1, ptr %12, align 4
  br label %34

33:                                               ; preds = %4
  store i1 false, ptr %5, align 1
  store i32 1, ptr %12, align 4
  br label %34

34:                                               ; preds = %33, %29
  call void @llvm.lifetime.end.p0(i64 8, ptr %11) #3
  call void @llvm.lifetime.end.p0(i64 4, ptr %10) #3
  %35 = load i1, ptr %5, align 1
  ret i1 %35
}

; Function Attrs: mustprogress nounwind uwtable
define linkonce_odr hidden noundef nonnull align 4 dereferenceable(8) ptr @_ZNSt4pairIjjEaSERKS0_Qcl13_S_assignableIRKT_RKT0_EE(ptr noundef nonnull align 4 dereferenceable(8) %0, ptr noundef nonnull align 4 dereferenceable(8) %1) #5 comdat align 2 {
  %3 = alloca ptr, align 8
  %4 = alloca ptr, align 8
  store ptr %0, ptr %3, align 8, !tbaa !222
  store ptr %1, ptr %4, align 8, !tbaa !222
  %5 = load ptr, ptr %3, align 8
  %6 = load ptr, ptr %4, align 8, !tbaa !222
  %7 = getelementptr inbounds nuw %"struct.std::pair", ptr %6, i32 0, i32 0
  %8 = load i32, ptr %7, align 4, !tbaa !213
  %9 = getelementptr inbounds nuw %"struct.std::pair", ptr %5, i32 0, i32 0
  store i32 %8, ptr %9, align 4, !tbaa !213
  %10 = load ptr, ptr %4, align 8, !tbaa !222
  %11 = getelementptr inbounds nuw %"struct.std::pair", ptr %10, i32 0, i32 1
  %12 = load i32, ptr %11, align 4, !tbaa !224
  %13 = getelementptr inbounds nuw %"struct.std::pair", ptr %5, i32 0, i32 1
  store i32 %12, ptr %13, align 4, !tbaa !224
  ret ptr %5
}

; Function Attrs: mustprogress nounwind uwtable
define linkonce_odr hidden noundef nonnull align 4 dereferenceable(8) ptr @_ZNK6vectorISt4pairIjjELb0EjEixEj(ptr noundef nonnull align 8 dereferenceable(8) %0, i32 noundef %1) #5 comdat align 2 {
  %3 = alloca ptr, align 8
  %4 = alloca i32, align 4
  store ptr %0, ptr %3, align 8, !tbaa !433
  store i32 %1, ptr %4, align 4, !tbaa !128
  %5 = load ptr, ptr %3, align 8
  %6 = getelementptr inbounds nuw %class.vector.63, ptr %5, i32 0, i32 0
  %7 = load ptr, ptr %6, align 8, !tbaa !435
  %8 = load i32, ptr %4, align 4, !tbaa !128
  %9 = zext i32 %8 to i64
  %10 = getelementptr inbounds nuw %"struct.std::pair", ptr %7, i64 %9
  ret ptr %10
}

; Function Attrs: mustprogress nounwind uwtable
define linkonce_odr hidden noundef i32 @_ZNK6vectorISt4pairIjjELb0EjE4sizeEv(ptr noundef nonnull align 8 dereferenceable(8) %0) #5 comdat align 2 {
  %2 = alloca i32, align 4
  %3 = alloca ptr, align 8
  store ptr %0, ptr %3, align 8, !tbaa !433
  %4 = load ptr, ptr %3, align 8
  %5 = getelementptr inbounds nuw %class.vector.63, ptr %4, i32 0, i32 0
  %6 = load ptr, ptr %5, align 8, !tbaa !435
  %7 = icmp eq ptr %6, null
  br i1 %7, label %8, label %9

8:                                                ; preds = %1
  store i32 0, ptr %2, align 4
  br label %14

9:                                                ; preds = %1
  %10 = getelementptr inbounds nuw %class.vector.63, ptr %4, i32 0, i32 0
  %11 = load ptr, ptr %10, align 8, !tbaa !435
  %12 = getelementptr inbounds i32, ptr %11, i64 -1
  %13 = load i32, ptr %12, align 4, !tbaa !128
  store i32 %13, ptr %2, align 4
  br label %14

14:                                               ; preds = %9, %8
  %15 = load i32, ptr %2, align 4
  ret i32 %15
}

; Function Attrs: mustprogress uwtable
define linkonce_odr hidden void @_ZN3mpqC2Ev(ptr noundef nonnull align 8 dereferenceable(32) %0) unnamed_addr #4 comdat align 2 {
  %2 = alloca ptr, align 8
  store ptr %0, ptr %2, align 8, !tbaa !454
  %3 = load ptr, ptr %2, align 8
  %4 = getelementptr inbounds nuw %class.mpq, ptr %3, i32 0, i32 0
  call void @_ZN3mpzC2Ev(ptr noundef nonnull align 8 dereferenceable(16) %4)
  %5 = getelementptr inbounds nuw %class.mpq, ptr %3, i32 0, i32 1
  call void @_ZN3mpzC2Ei(ptr noundef nonnull align 8 dereferenceable(16) %5, i32 noundef 1)
  ret void
}

; Function Attrs: mustprogress nounwind uwtable
define linkonce_odr hidden noundef ptr @_ZNK11expr_offset8get_exprEv(ptr noundef nonnull align 8 dereferenceable(12) %0) #5 comdat align 2 {
  %2 = alloca ptr, align 8
  store ptr %0, ptr %2, align 8, !tbaa !216
  %3 = load ptr, ptr %2, align 8
  %4 = getelementptr inbounds nuw %class.expr_offset, ptr %3, i32 0, i32 0
  %5 = load ptr, ptr %4, align 8, !tbaa !218
  ret ptr %5
}

; Function Attrs: mustprogress uwtable
define linkonce_odr hidden void @_ZNK12substitution11get_bindingEjRSt4pairIjjER11expr_offset(ptr noundef nonnull align 8 dereferenceable(124) %0, i32 noundef %1, ptr noundef nonnull align 4 dereferenceable(8) %2, ptr noundef nonnull align 8 dereferenceable(12) %3) #4 comdat align 2 {
  %5 = alloca ptr, align 8
  %6 = alloca i32, align 4
  %7 = alloca ptr, align 8
  %8 = alloca ptr, align 8
  store ptr %0, ptr %5, align 8, !tbaa !211
  store i32 %1, ptr %6, align 4, !tbaa !128
  store ptr %2, ptr %7, align 8, !tbaa !222
  store ptr %3, ptr %8, align 8, !tbaa !216
  %9 = load ptr, ptr %5, align 8
  %10 = getelementptr inbounds nuw %class.substitution, ptr %9, i32 0, i32 2
  %11 = load i32, ptr %6, align 4, !tbaa !128
  %12 = call noundef nonnull align 4 dereferenceable(8) ptr @_ZNK6vectorISt4pairIjjELb0EjEixEj(ptr noundef nonnull align 8 dereferenceable(8) %10, i32 noundef %11)
  %13 = load ptr, ptr %7, align 8, !tbaa !222
  %14 = call noundef nonnull align 4 dereferenceable(8) ptr @_ZNSt4pairIjjEaSERKS0_Qcl13_S_assignableIRKT_RKT0_EE(ptr noundef nonnull align 4 dereferenceable(8) %13, ptr noundef nonnull align 4 dereferenceable(8) %12) #3
  %15 = getelementptr inbounds nuw %class.substitution, ptr %9, i32 0, i32 1
  %16 = load ptr, ptr %7, align 8, !tbaa !222
  %17 = getelementptr inbounds nuw %"struct.std::pair", ptr %16, i32 0, i32 0
  %18 = load i32, ptr %17, align 4, !tbaa !213
  %19 = load ptr, ptr %7, align 8, !tbaa !222
  %20 = getelementptr inbounds nuw %"struct.std::pair", ptr %19, i32 0, i32 1
  %21 = load i32, ptr %20, align 4, !tbaa !224
  %22 = load ptr, ptr %8, align 8, !tbaa !216
  %23 = call noundef zeroext i1 @_ZNK14var_offset_mapI11expr_offsetE4findEjjRS0_(ptr noundef nonnull align 8 dereferenceable(20) %15, i32 noundef %18, i32 noundef %21, ptr noundef nonnull align 8 dereferenceable(12) %22)
  br i1 %23, label %25, label %24

24:                                               ; preds = %4
  call void @_Z26notify_assertion_violationPKciS0_(ptr noundef @.str.13, i32 noundef 157, ptr noundef @.str.14)
  call void @_Z18invoke_exit_actionj(i32 noundef 114)
  br label %25

25:                                               ; preds = %24, %4
  ret void
}

; Function Attrs: mustprogress uwtable
define linkonce_odr hidden noundef i32 @_ZNK12substitution16get_num_bindingsEv(ptr noundef nonnull align 8 dereferenceable(124) %0) #4 comdat align 2 {
  %2 = alloca ptr, align 8
  store ptr %0, ptr %2, align 8, !tbaa !211
  %3 = load ptr, ptr %2, align 8
  %4 = getelementptr inbounds nuw %class.substitution, ptr %3, i32 0, i32 2
  %5 = call noundef i32 @_ZNK6vectorISt4pairIjjELb0EjE4sizeEv(ptr noundef nonnull align 8 dereferenceable(8) %4)
  ret i32 %5
}

; Function Attrs: mustprogress uwtable
define linkonce_odr hidden void @_ZN8rationalC2Ev(ptr noundef nonnull align 8 dereferenceable(32) %0) unnamed_addr #4 comdat align 2 {
  %2 = alloca ptr, align 8
  store ptr %0, ptr %2, align 8, !tbaa !241
  %3 = load ptr, ptr %2, align 8
  %4 = getelementptr inbounds nuw %class.rational, ptr %3, i32 0, i32 0
  call void @_ZN3mpqC2Ev(ptr noundef nonnull align 8 dereferenceable(32) %4)
  ret void
}

; Function Attrs: mustprogress nounwind uwtable
define linkonce_odr hidden void @_ZN11expr_offsetC2Ev(ptr noundef nonnull align 8 dereferenceable(12) %0) unnamed_addr #5 comdat align 2 {
  %2 = alloca ptr, align 8
  store ptr %0, ptr %2, align 8, !tbaa !216
  %3 = load ptr, ptr %2, align 8
  %4 = getelementptr inbounds nuw %class.expr_offset, ptr %3, i32 0, i32 0
  store ptr null, ptr %4, align 8, !tbaa !218
  %5 = getelementptr inbounds nuw %class.expr_offset, ptr %3, i32 0, i32 1
  store i32 0, ptr %5, align 8, !tbaa !221
  ret void
}

; Function Attrs: mustprogress nounwind uwtable
define linkonce_odr hidden void @_ZNSt4pairIjjEC2EvQaa26is_default_constructible_vIT_E26is_default_constructible_vIT0_E(ptr noundef nonnull align 4 dereferenceable(8) %0) unnamed_addr #5 comdat align 2 {
  %2 = alloca ptr, align 8
  store ptr %0, ptr %2, align 8, !tbaa !222
  %3 = load ptr, ptr %2, align 8
  %4 = getelementptr inbounds nuw %"struct.std::pair", ptr %3, i32 0, i32 0
  store i32 0, ptr %4, align 4, !tbaa !213
  %5 = getelementptr inbounds nuw %"struct.std::pair", ptr %3, i32 0, i32 1
  store i32 0, ptr %5, align 4, !tbaa !224
  ret void
}

; Function Attrs: mustprogress uwtable
define internal noundef zeroext i1 @_ZN12_GLOBAL__N_111contains_bvER11ast_managerRK12substitutionRj(ptr noundef nonnull align 8 dereferenceable(976) %0, ptr noundef nonnull align 8 dereferenceable(124) %1, ptr noundef nonnull align 4 dereferenceable(4) %2) #4 personality ptr @__gxx_personality_v0 {
  %4 = alloca i1, align 1
  %5 = alloca ptr, align 8
  %6 = alloca ptr, align 8
  %7 = alloca ptr, align 8
  %8 = alloca %class.bv_util, align 8
  %9 = alloca %"struct.std::pair", align 4
  %10 = alloca %class.expr_offset, align 8
  %11 = alloca %class.rational, align 8
  %12 = alloca i32, align 4
  %13 = alloca i32, align 4
  %14 = alloca ptr, align 8
  %15 = alloca i32, align 4
  %16 = alloca i32, align 4
  store ptr %0, ptr %5, align 8, !tbaa !8
  store ptr %1, ptr %6, align 8, !tbaa !211
  store ptr %2, ptr %7, align 8, !tbaa !245
  call void @llvm.lifetime.start.p0(i64 24, ptr %8) #3
  %17 = load ptr, ptr %5, align 8, !tbaa !8
  call void @_ZN7bv_utilC1ER11ast_manager(ptr noundef nonnull align 8 dereferenceable(24) %8, ptr noundef nonnull align 8 dereferenceable(976) %17)
  call void @llvm.lifetime.start.p0(i64 8, ptr %9) #3
  call void @_ZNSt4pairIjjEC2EvQaa26is_default_constructible_vIT_E26is_default_constructible_vIT0_E(ptr noundef nonnull align 4 dereferenceable(8) %9)
  call void @llvm.lifetime.start.p0(i64 16, ptr %10) #3
  call void @_ZN11expr_offsetC2Ev(ptr noundef nonnull align 8 dereferenceable(12) %10)
  call void @llvm.lifetime.start.p0(i64 32, ptr %11) #3
  call void @_ZN8rationalC2Ev(ptr noundef nonnull align 8 dereferenceable(32) %11)
  call void @llvm.lifetime.start.p0(i64 4, ptr %12) #3
  store i32 0, ptr %12, align 4, !tbaa !128
  call void @llvm.lifetime.start.p0(i64 4, ptr %13) #3
  %18 = load ptr, ptr %6, align 8, !tbaa !211
  %19 = invoke noundef i32 @_ZNK12substitution16get_num_bindingsEv(ptr noundef nonnull align 8 dereferenceable(124) %18)
          to label %20 unwind label %26

20:                                               ; preds = %3
  store i32 %19, ptr %13, align 4, !tbaa !128
  br label %21

21:                                               ; preds = %39, %20
  %22 = load i32, ptr %12, align 4, !tbaa !128
  %23 = load i32, ptr %13, align 4, !tbaa !128
  %24 = icmp ult i32 %22, %23
  br i1 %24, label %30, label %25

25:                                               ; preds = %21
  store i32 2, ptr %16, align 4
  br label %42

26:                                               ; preds = %33, %30, %3
  %27 = landingpad { ptr, i32 }
          cleanup
  %28 = extractvalue { ptr, i32 } %27, 0
  store ptr %28, ptr %14, align 8
  %29 = extractvalue { ptr, i32 } %27, 1
  store i32 %29, ptr %15, align 4
  call void @llvm.lifetime.end.p0(i64 4, ptr %13) #3
  call void @llvm.lifetime.end.p0(i64 4, ptr %12) #3
  call void @_ZN8rationalD2Ev(ptr noundef nonnull align 8 dereferenceable(32) %11) #3
  call void @llvm.lifetime.end.p0(i64 32, ptr %11) #3
  call void @llvm.lifetime.end.p0(i64 16, ptr %10) #3
  call void @llvm.lifetime.end.p0(i64 8, ptr %9) #3
  call void @llvm.lifetime.end.p0(i64 24, ptr %8) #3
  br label %47

30:                                               ; preds = %21
  %31 = load ptr, ptr %6, align 8, !tbaa !211
  %32 = load i32, ptr %12, align 4, !tbaa !128
  invoke void @_ZNK12substitution11get_bindingEjRSt4pairIjjER11expr_offset(ptr noundef nonnull align 8 dereferenceable(124) %31, i32 noundef %32, ptr noundef nonnull align 4 dereferenceable(8) %9, ptr noundef nonnull align 8 dereferenceable(12) %10)
          to label %33 unwind label %26

33:                                               ; preds = %30
  %34 = call noundef ptr @_ZNK11expr_offset8get_exprEv(ptr noundef nonnull align 8 dereferenceable(12) %10)
  %35 = invoke noundef zeroext i1 @_ZNK14bv_recognizers10is_numeralEPK4exprR8rationalRj(ptr noundef nonnull align 4 dereferenceable(4) %8, ptr noundef %34, ptr noundef nonnull align 8 dereferenceable(32) %11, ptr noundef nonnull align 4 dereferenceable(4) %13)
          to label %36 unwind label %26

36:                                               ; preds = %33
  br i1 %35, label %37, label %38

37:                                               ; preds = %36
  store i1 true, ptr %4, align 1
  store i32 1, ptr %16, align 4
  br label %42

38:                                               ; preds = %36
  br label %39

39:                                               ; preds = %38
  %40 = load i32, ptr %12, align 4, !tbaa !128
  %41 = add i32 %40, 1
  store i32 %41, ptr %12, align 4, !tbaa !128
  br label %21, !llvm.loop !246

42:                                               ; preds = %37, %25
  call void @llvm.lifetime.end.p0(i64 4, ptr %13) #3
  call void @llvm.lifetime.end.p0(i64 4, ptr %12) #3
  %43 = load i32, ptr %16, align 4
  switch i32 %43, label %45 [
    i32 2, label %44
  ]

44:                                               ; preds = %42
  store i1 false, ptr %4, align 1
  store i32 1, ptr %16, align 4
  br label %45

45:                                               ; preds = %44, %42
  call void @_ZN8rationalD2Ev(ptr noundef nonnull align 8 dereferenceable(32) %11) #3
  call void @llvm.lifetime.end.p0(i64 32, ptr %11) #3
  call void @llvm.lifetime.end.p0(i64 16, ptr %10) #3
  call void @llvm.lifetime.end.p0(i64 8, ptr %9) #3
  call void @llvm.lifetime.end.p0(i64 24, ptr %8) #3
  %46 = load i1, ptr %4, align 1
  ret i1 %46

47:                                               ; preds = %26
  %48 = load ptr, ptr %14, align 8
  %49 = load i32, ptr %15, align 4
  %50 = insertvalue { ptr, i32 } poison, ptr %48, 0
  %51 = insertvalue { ptr, i32 } %50, i32 %49, 1
  resume { ptr, i32 } %51
}