; Function Attrs: mustprogress uwtable
define internal fastcc noundef zeroext i1 @_ZN12_GLOBAL__N_111contains_bvER11ast_managerRK12substitutionRj(ptr noundef nonnull align 8 dereferenceable(976) %0, ptr noundef nonnull readonly align 8 captures(none) dereferenceable(124) %1) unnamed_addr #3 personality ptr @__gxx_personality_v0 {
  %3 = alloca %class.bv_util, align 8
  %4 = alloca %class.rational, align 8
  %5 = alloca i32, align 4
  call void @llvm.lifetime.start.p0(i64 24, ptr nonnull %3) #23
  call void @_ZN7bv_utilC1ER11ast_manager(ptr noundef nonnull align 8 dereferenceable(24) %3, ptr noundef nonnull align 8 dereferenceable(976) %0)
  call void @llvm.lifetime.start.p0(i64 32, ptr nonnull %4) #23
  store i32 0, ptr %4, align 8, !tbaa !247
  %6 = getelementptr inbounds nuw i8, ptr %4, i64 4
  store i8 0, ptr %6, align 4
  %7 = getelementptr inbounds nuw i8, ptr %4, i64 8
  store ptr null, ptr %7, align 8, !tbaa !250
  %8 = getelementptr inbounds nuw i8, ptr %4, i64 16
  store i32 1, ptr %8, align 8, !tbaa !247
  %9 = getelementptr inbounds nuw i8, ptr %4, i64 20
  store i8 0, ptr %9, align 4
  %10 = getelementptr inbounds nuw i8, ptr %4, i64 24
  store ptr null, ptr %10, align 8, !tbaa !250
  call void @llvm.lifetime.start.p0(i64 4, ptr nonnull %5) #23
  %11 = getelementptr inbounds nuw i8, ptr %1, i64 32
  %12 = load ptr, ptr %11, align 8, !tbaa !229
  %13 = icmp eq ptr %12, null
  br i1 %13, label %.critedge, label %_ZNK12substitution16get_num_bindingsEv.exit

_ZNK12substitution16get_num_bindingsEv.exit:      ; preds = %2
  %14 = getelementptr inbounds i8, ptr %12, i64 -4
  %15 = load i32, ptr %14, align 4, !tbaa !60
  store i32 %15, ptr %5, align 4, !tbaa !60
  %.not5.not = icmp eq i32 %15, 0
  br i1 %.not5.not, label %.critedge, label %.lr.ph

.lr.ph:                                           ; preds = %_ZNK12substitution16get_num_bindingsEv.exit
  %16 = getelementptr inbounds nuw i8, ptr %1, i64 8
  %17 = getelementptr inbounds nuw i8, ptr %1, i64 20
  %18 = getelementptr inbounds nuw i8, ptr %1, i64 24
  br label %24

19:                                               ; preds = %41
  %indvars.iv.next = add nuw nsw i64 %indvars.iv, 1
  %20 = load i32, ptr %5, align 4, !tbaa !60
  %21 = zext i32 %20 to i64
  %.not = icmp samesign ult i64 %indvars.iv.next, %21
  br i1 %.not, label %24, label %.critedge, !llvm.loop !279

22:                                               ; preds = %.noexc, %_ZNK14var_offset_mapI11expr_offsetE4findEjjRS0_.exit.i, %_ZNK12substitution11get_bindingEjRSt4pairIjjER11expr_offset.exit
  %23 = landingpad { ptr, i32 }
          cleanup
  call void @llvm.lifetime.end.p0(i64 4, ptr nonnull %5) #23
  call void @_ZN8rationalD2Ev(ptr noundef nonnull align 8 dereferenceable(32) %4) #23
  call void @llvm.lifetime.end.p0(i64 32, ptr nonnull %4) #23
  call void @llvm.lifetime.end.p0(i64 24, ptr nonnull %3) #23
  resume { ptr, i32 } %23

24:                                               ; preds = %.lr.ph, %19
  %indvars.iv = phi i64 [ 0, %.lr.ph ], [ %indvars.iv.next, %19 ]
  %.sroa.0.06 = phi ptr [ null, %.lr.ph ], [ %.sroa.0.1, %19 ]
  %25 = load ptr, ptr %11, align 8, !tbaa !229
  %26 = getelementptr inbounds nuw %"struct.std::pair", ptr %25, i64 %indvars.iv
  %27 = load i32, ptr %26, align 4, !tbaa !233
  %28 = getelementptr inbounds nuw i8, ptr %26, i64 4
  %29 = load i32, ptr %28, align 4, !tbaa !235
  %30 = load i32, ptr %17, align 4, !tbaa !236
  %31 = mul i32 %30, %29
  %32 = add i32 %31, %27
  %33 = load ptr, ptr %16, align 8, !tbaa !241
  %34 = zext i32 %32 to i64
  %35 = getelementptr inbounds nuw %"struct.var_offset_map<expr_offset>::data", ptr %33, i64 %34
  %36 = getelementptr inbounds nuw i8, ptr %35, i64 16
  %37 = load i32, ptr %36, align 8, !tbaa !242
  %38 = load i32, ptr %18, align 8, !tbaa !245
  %39 = icmp eq i32 %37, %38
  br i1 %39, label %_ZNK14var_offset_mapI11expr_offsetE4findEjjRS0_.exit.thread.i, label %_ZNK14var_offset_mapI11expr_offsetE4findEjjRS0_.exit.i

_ZNK14var_offset_mapI11expr_offsetE4findEjjRS0_.exit.thread.i: ; preds = %24
  %.sroa.0.0.copyload = load ptr, ptr %35, align 8, !tbaa !226
  br label %_ZNK12substitution11get_bindingEjRSt4pairIjjER11expr_offset.exit

_ZNK14var_offset_mapI11expr_offsetE4findEjjRS0_.exit.i: ; preds = %24
  invoke void @_Z26notify_assertion_violationPKciS0_(ptr noundef nonnull @.str.13, i32 noundef 157, ptr noundef nonnull @.str.14)
          to label %.noexc unwind label %22

.noexc:                                           ; preds = %_ZNK14var_offset_mapI11expr_offsetE4findEjjRS0_.exit.i
  invoke void @_Z18invoke_exit_actionj(i32 noundef 114)
          to label %_ZNK12substitution11get_bindingEjRSt4pairIjjER11expr_offset.exit unwind label %22

_ZNK12substitution11get_bindingEjRSt4pairIjjER11expr_offset.exit: ; preds = %_ZNK14var_offset_mapI11expr_offsetE4findEjjRS0_.exit.thread.i, %.noexc
  %.sroa.0.1 = phi ptr [ %.sroa.0.0.copyload, %_ZNK14var_offset_mapI11expr_offsetE4findEjjRS0_.exit.thread.i ], [ %.sroa.0.06, %.noexc ]
  %40 = invoke noundef zeroext i1 @_ZNK14bv_recognizers10is_numeralEPK4exprR8rationalRj(ptr noundef nonnull align 4 dereferenceable(4) %3, ptr noundef %.sroa.0.1, ptr noundef nonnull align 8 dereferenceable(32) %4, ptr noundef nonnull align 4 dereferenceable(4) %5)
          to label %41 unwind label %22

41:                                               ; preds = %_ZNK12substitution11get_bindingEjRSt4pairIjjER11expr_offset.exit
  br i1 %40, label %.critedge, label %19

.critedge:                                        ; preds = %19, %41, %_ZNK12substitution16get_num_bindingsEv.exit, %2
  %.not4 = phi i1 [ false, %2 ], [ false, %_ZNK12substitution16get_num_bindingsEv.exit ], [ %40, %41 ], [ %40, %19 ]
  call void @llvm.lifetime.end.p0(i64 4, ptr nonnull %5) #23
  %42 = load ptr, ptr @_ZN8rational13g_mpq_managerE, align 8, !tbaa !61
  invoke void @_ZN11mpz_managerILb1EE3delEPS0_R3mpz(ptr noundef %42, ptr noundef nonnull align 8 dereferenceable(32) %4)
          to label %.noexc.i unwind label %43

.noexc.i:                                         ; preds = %.critedge
  invoke void @_ZN11mpz_managerILb1EE3delEPS0_R3mpz(ptr noundef %42, ptr noundef nonnull align 8 dereferenceable(16) %8)
          to label %_ZN8rationalD2Ev.exit unwind label %43

43:                                               ; preds = %.noexc.i, %.critedge
  %44 = landingpad { ptr, i32 }
          catch ptr null
  %45 = extractvalue { ptr, i32 } %44, 0
  call void @__clang_call_terminate(ptr %45) #24
  unreachable

_ZN8rationalD2Ev.exit:                            ; preds = %.noexc.i
  call void @llvm.lifetime.end.p0(i64 32, ptr nonnull %4) #23
  call void @llvm.lifetime.end.p0(i64 24, ptr nonnull %3) #23
  ret i1 %.not4
}